target datalayout = "e-m:e-p270:32:32-p271:32:32-p272:64:64-i64:64-i128:128-f80:128-n8:16:32:64-S128"
target triple = "x86_64-pc-linux-gnu"

%struct.Abc_ManRef_t_ = type { i32, i32, i32, ptr, ptr, ptr, ptr, ptr, ptr, ptr, i32, i32, i32, i32, i32, i32, i64, i64, i64, i64, i64, i64, i64, i64, i64 }

@.str.7 = private unnamed_addr constant [25 x i8] c"Refactoring statistics:\0A\00", align 1
@.str.8 = private unnamed_addr constant [26 x i8] c"Nodes considered  = %8d.\0A\00", align 1
@.str.9 = private unnamed_addr constant [26 x i8] c"Nodes refactored  = %8d.\0A\00", align 1
@.str.10 = private unnamed_addr constant [38 x i8] c"Gain              = %8d. (%6.2f %%).\0A\00", align 1
@.str.11 = private unnamed_addr constant [5 x i8] c"%s =\00", align 1
@.str.12 = private unnamed_addr constant [12 x i8] c"Cuts       \00", align 1
@.str.13 = private unnamed_addr constant [11 x i8] c"%9.2f sec\0A\00", align 1
@.str.14 = private unnamed_addr constant [12 x i8] c"Resynthesis\00", align 1
@.str.15 = private unnamed_addr constant [12 x i8] c"    BDD    \00", align 1
@.str.16 = private unnamed_addr constant [12 x i8] c"    DCs    \00", align 1
@.str.17 = private unnamed_addr constant [12 x i8] c"    SOP    \00", align 1
@.str.18 = private unnamed_addr constant [12 x i8] c"    FF     \00", align 1
@.str.19 = private unnamed_addr constant [12 x i8] c"    Eval   \00", align 1
@.str.20 = private unnamed_addr constant [12 x i8] c"AIG update \00", align 1
@.str.21 = private unnamed_addr constant [12 x i8] c"TOTAL      \00", align 1

; Function Attrs: nounwind uwtable
define void @Abc_NtkManRefPrintStats(ptr noundef %0) #0 {
  %2 = alloca ptr, align 8
  store ptr %0, ptr %2, align 8, !tbaa !51
  %3 = call i32 (ptr, ...) @printf(ptr noundef @.str.7)
  %4 = load ptr, ptr %2, align 8, !tbaa !51
  %5 = getelementptr inbounds nuw %struct.Abc_ManRef_t_, ptr %4, i32 0, i32 11
  %6 = load i32, ptr %5, align 4, !tbaa !56
  %7 = call i32 (ptr, ...) @printf(ptr noundef @.str.8, i32 noundef %6)
  %8 = load ptr, ptr %2, align 8, !tbaa !51
  %9 = getelementptr inbounds nuw %struct.Abc_ManRef_t_, ptr %8, i32 0, i32 12
  %10 = load i32, ptr %9, align 8, !tbaa !63
  %11 = call i32 (ptr, ...) @printf(ptr noundef @.str.9, i32 noundef %10)
  %12 = load ptr, ptr %2, align 8, !tbaa !51
  %13 = getelementptr inbounds nuw %struct.Abc_ManRef_t_, ptr %12, i32 0, i32 14
  %14 = load i32, ptr %13, align 8, !tbaa !97
  %15 = load ptr, ptr %2, align 8, !tbaa !51
  %16 = getelementptr inbounds nuw %struct.Abc_ManRef_t_, ptr %15, i32 0, i32 15
  %17 = load i32, ptr %16, align 4, !tbaa !98
  %18 = sub nsw i32 %14, %17
  %19 = load ptr, ptr %2, align 8, !tbaa !51
  %20 = getelementptr inbounds nuw %struct.Abc_ManRef_t_, ptr %19, i32 0, i32 14
  %21 = load i32, ptr %20, align 8, !tbaa !97
  %22 = load ptr, ptr %2, align 8, !tbaa !51
  %23 = getelementptr inbounds nuw %struct.Abc_ManRef_t_, ptr %22, i32 0, i32 15
  %24 = load i32, ptr %23, align 4, !tbaa !98
  %25 = sub nsw i32 %21, %24
  %26 = sitofp i32 %25 to double
  %27 = fmul double 1.000000e+02, %26
  %28 = load ptr, ptr %2, align 8, !tbaa !51
  %29 = getelementptr inbounds nuw %struct.Abc_ManRef_t_, ptr %28, i32 0, i32 14
  %30 = load i32, ptr %29, align 8, !tbaa !97
  %31 = sitofp i32 %30 to double
  %32 = fdiv double %27, %31
  %33 = call i32 (ptr, ...) @printf(ptr noundef @.str.10, i32 noundef %18, double noundef %32)
  call void (i32, ptr, ...) @Abc_Print(i32 noundef 1, ptr noundef @.str.11, ptr noundef @.str.12)
  %34 = load ptr, ptr %2, align 8, !tbaa !51
  %35 = getelementptr inbounds nuw %struct.Abc_ManRef_t_, ptr %34, i32 0, i32 16
  %36 = load i64, ptr %35, align 8, !tbaa !99
  %37 = sitofp i64 %36 to double
  %38 = fmul double 1.000000e+00, %37
  %39 = fdiv double %38, 1.000000e+06
  call void (i32, ptr, ...) @Abc_Print(i32 noundef 1, ptr noundef @.str.13, double noundef %39)
  call void (i32, ptr, ...) @Abc_Print(i32 noundef 1, ptr noundef @.str.11, ptr noundef @.str.14)
  %40 = load ptr, ptr %2, align 8, !tbaa !51
  %41 = getelementptr inbounds nuw %struct.Abc_ManRef_t_, ptr %40, i32 0, i32 22
  %42 = load i64, ptr %41, align 8, !tbaa !100
  %43 = sitofp i64 %42 to double
  %44 = fmul double 1.000000e+00, %43
  %45 = fdiv double %44, 1.000000e+06
  call void (i32, ptr, ...) @Abc_Print(i32 noundef 1, ptr noundef @.str.13, double noundef %45)
  call void (i32, ptr, ...) @Abc_Print(i32 noundef 1, ptr noundef @.str.11, ptr noundef @.str.15)
  %46 = load ptr, ptr %2, align 8, !tbaa !51
  %47 = getelementptr inbounds nuw %struct.Abc_ManRef_t_, ptr %46, i32 0, i32 17
  %48 = load i64, ptr %47, align 8, !tbaa !60
  %49 = sitofp i64 %48 to double
  %50 = fmul double 1.000000e+00, %49
  %51 = fdiv double %50, 1.000000e+06
  call void (i32, ptr, ...) @Abc_Print(i32 noundef 1, ptr noundef @.str.13, double noundef %51)
  call void (i32, ptr, ...) @Abc_Print(i32 noundef 1, ptr noundef @.str.11, ptr noundef @.str.16)
  %52 = load ptr, ptr %2, align 8, !tbaa !51
  %53 = getelementptr inbounds nuw %struct.Abc_ManRef_t_, ptr %52, i32 0, i32 18
  %54 = load i64, ptr %53, align 8, !tbaa !101
  %55 = sitofp i64 %54 to double
  %56 = fmul double 1.000000e+00, %55
  %57 = fdiv double %56, 1.000000e+06
  call void (i32, ptr, ...) @Abc_Print(i32 noundef 1, ptr noundef @.str.13, double noundef %57)
  call void (i32, ptr, ...) @Abc_Print(i32 noundef 1, ptr noundef @.str.11, ptr noundef @.str.17)
  %58 = load ptr, ptr %2, align 8, !tbaa !51
  %59 = getelementptr inbounds nuw %struct.Abc_ManRef_t_, ptr %58, i32 0, i32 19
  %60 = load i64, ptr %59, align 8, !tbaa !102
  %61 = sitofp i64 %60 to double
  %62 = fmul double 1.000000e+00, %61
  %63 = fdiv double %62, 1.000000e+06
  call void (i32, ptr, ...) @Abc_Print(i32 noundef 1, ptr noundef @.str.13, double noundef %63)
  call void (i32, ptr, ...) @Abc_Print(i32 noundef 1, ptr noundef @.str.11, ptr noundef @.str.18)
  %64 = load ptr, ptr %2, align 8, !tbaa !51
  %65 = getelementptr inbounds nuw %struct.Abc_ManRef_t_, ptr %64, i32 0, i32 20
  %66 = load i64, ptr %65, align 8, !tbaa !67
  %67 = sitofp i64 %66 to double
  %68 = fmul double 1.000000e+00, %67
  %69 = fdiv double %68, 1.000000e+06
  call void (i32, ptr, ...) @Abc_Print(i32 noundef 1, ptr noundef @.str.13, double noundef %69)
  call void (i32, ptr, ...) @Abc_Print(i32 noundef 1, ptr noundef @.str.11, ptr noundef @.str.19)
  %70 = load ptr, ptr %2, align 8, !tbaa !51
  %71 = getelementptr inbounds nuw %struct.Abc_ManRef_t_, ptr %70, i32 0, i32 21
  %72 = load i64, ptr %71, align 8, !tbaa !71
  %73 = sitofp i64 %72 to double
  %74 = fmul double 1.000000e+00, %73
  %75 = fdiv double %74, 1.000000e+06
  call void (i32, ptr, ...) @Abc_Print(i32 noundef 1, ptr noundef @.str.13, double noundef %75)
  call void (i32, ptr, ...) @Abc_Print(i32 noundef 1, ptr noundef @.str.11, ptr noundef @.str.20)
  %76 = load ptr, ptr %2, align 8, !tbaa !51
  %77 = getelementptr inbounds nuw %struct.Abc_ManRef_t_, ptr %76, i32 0, i32 23
  %78 = load i64, ptr %77, align 8, !tbaa !103
  %79 = sitofp i64 %78 to double
  %80 = fmul double 1.000000e+00, %79
  %81 = fdiv double %80, 1.000000e+06
  call void (i32, ptr, ...) @Abc_Print(i32 noundef 1, ptr noundef @.str.13, double noundef %81)
  call void (i32, ptr, ...) @Abc_Print(i32 noundef 1, ptr noundef @.str.11, ptr noundef @.str.21)
  %82 = load ptr, ptr %2, align 8, !tbaa !51
  %83 = getelementptr inbounds nuw %struct.Abc_ManRef_t_, ptr %82, i32 0, i32 24
  %84 = load i64, ptr %83, align 8, !tbaa !104
  %85 = sitofp i64 %84 to double
  %86 = fmul double 1.000000e+00, %85
  %87 = fdiv double %86, 1.000000e+06
  call void (i32, ptr, ...) @Abc_Print(i32 noundef 1, ptr noundef @.str.13, double noundef %87)
  ret void
}