; Function Attrs: nounwind uwtable
define void @Abc_NtkManRefPrintStats(ptr noundef readonly captures(none) %0) local_unnamed_addr #0 {
  %puts = tail call i32 @puts(ptr nonnull dereferenceable(1) @str)
  %2 = getelementptr inbounds nuw i8, ptr %0, i64 76
  %3 = load i32, ptr %2, align 4, !tbaa !51
  %4 = tail call i32 (ptr, ...) @printf(ptr noundef nonnull dereferenceable(1) @.str.8, i32 noundef %3)
  %5 = getelementptr inbounds nuw i8, ptr %0, i64 80
  %6 = load i32, ptr %5, align 8, !tbaa !61
  %7 = tail call i32 (ptr, ...) @printf(ptr noundef nonnull dereferenceable(1) @.str.9, i32 noundef %6)
  %8 = getelementptr inbounds nuw i8, ptr %0, i64 88
  %9 = load i32, ptr %8, align 8, !tbaa !90
  %10 = getelementptr inbounds nuw i8, ptr %0, i64 92
  %11 = load i32, ptr %10, align 4, !tbaa !91
  %12 = sub nsw i32 %9, %11
  %13 = sitofp i32 %12 to double
  %14 = fmul double %13, 1.000000e+02
  %15 = sitofp i32 %9 to double
  %16 = fdiv double %14, %15
  %17 = tail call i32 (ptr, ...) @printf(ptr noundef nonnull dereferenceable(1) @.str.10, i32 noundef %12, double noundef %16)
  tail call void (i32, ptr, ...) @Abc_Print(i32 poison, ptr noundef nonnull @.str.11, ptr noundef nonnull @.str.12)
  %18 = getelementptr inbounds nuw i8, ptr %0, i64 96
  %19 = load i64, ptr %18, align 8, !tbaa !92
  %20 = sitofp i64 %19 to double
  %21 = fdiv double %20, 1.000000e+06
  tail call void (i32, ptr, ...) @Abc_Print(i32 poison, ptr noundef nonnull @.str.13, double noundef %21)
  tail call void (i32, ptr, ...) @Abc_Print(i32 poison, ptr noundef nonnull @.str.11, ptr noundef nonnull @.str.14)
  %22 = getelementptr inbounds nuw i8, ptr %0, i64 144
  %23 = load i64, ptr %22, align 8, !tbaa !93
  %24 = sitofp i64 %23 to double
  %25 = fdiv double %24, 1.000000e+06
  tail call void (i32, ptr, ...) @Abc_Print(i32 poison, ptr noundef nonnull @.str.13, double noundef %25)
  tail call void (i32, ptr, ...) @Abc_Print(i32 poison, ptr noundef nonnull @.str.11, ptr noundef nonnull @.str.15)
  %26 = getelementptr inbounds nuw i8, ptr %0, i64 104
  %27 = load i64, ptr %26, align 8, !tbaa !58
  %28 = sitofp i64 %27 to double
  %29 = fdiv double %28, 1.000000e+06
  tail call void (i32, ptr, ...) @Abc_Print(i32 poison, ptr noundef nonnull @.str.13, double noundef %29)
  tail call void (i32, ptr, ...) @Abc_Print(i32 poison, ptr noundef nonnull @.str.11, ptr noundef nonnull @.str.16)
  %30 = getelementptr inbounds nuw i8, ptr %0, i64 112
  %31 = load i64, ptr %30, align 8, !tbaa !94
  %32 = sitofp i64 %31 to double
  %33 = fdiv double %32, 1.000000e+06
  tail call void (i32, ptr, ...) @Abc_Print(i32 poison, ptr noundef nonnull @.str.13, double noundef %33)
  tail call void (i32, ptr, ...) @Abc_Print(i32 poison, ptr noundef nonnull @.str.11, ptr noundef nonnull @.str.17)
  %34 = getelementptr inbounds nuw i8, ptr %0, i64 120
  %35 = load i64, ptr %34, align 8, !tbaa !95
  %36 = sitofp i64 %35 to double
  %37 = fdiv double %36, 1.000000e+06
  tail call void (i32, ptr, ...) @Abc_Print(i32 poison, ptr noundef nonnull @.str.13, double noundef %37)
  tail call void (i32, ptr, ...) @Abc_Print(i32 poison, ptr noundef nonnull @.str.11, ptr noundef nonnull @.str.18)
  %38 = getelementptr inbounds nuw i8, ptr %0, i64 128
  %39 = load i64, ptr %38, align 8, !tbaa !67
  %40 = sitofp i64 %39 to double
  %41 = fdiv double %40, 1.000000e+06
  tail call void (i32, ptr, ...) @Abc_Print(i32 poison, ptr noundef nonnull @.str.13, double noundef %41)
  tail call void (i32, ptr, ...) @Abc_Print(i32 poison, ptr noundef nonnull @.str.11, ptr noundef nonnull @.str.19)
  %42 = getelementptr inbounds nuw i8, ptr %0, i64 136
  %43 = load i64, ptr %42, align 8, !tbaa !77
  %44 = sitofp i64 %43 to double
  %45 = fdiv double %44, 1.000000e+06
  tail call void (i32, ptr, ...) @Abc_Print(i32 poison, ptr noundef nonnull @.str.13, double noundef %45)
  tail call void (i32, ptr, ...) @Abc_Print(i32 poison, ptr noundef nonnull @.str.11, ptr noundef nonnull @.str.20)
  %46 = getelementptr inbounds nuw i8, ptr %0, i64 152
  %47 = load i64, ptr %46, align 8, !tbaa !96
  %48 = sitofp i64 %47 to double
  %49 = fdiv double %48, 1.000000e+06
  tail call void (i32, ptr, ...) @Abc_Print(i32 poison, ptr noundef nonnull @.str.13, double noundef %49)
  tail call void (i32, ptr, ...) @Abc_Print(i32 poison, ptr noundef nonnull @.str.11, ptr noundef nonnull @.str.21)
  %50 = getelementptr inbounds nuw i8, ptr %0, i64 160
  %51 = load i64, ptr %50, align 8, !tbaa !97
  %52 = sitofp i64 %51 to double
  %53 = fdiv double %52, 1.000000e+06
  tail call void (i32, ptr, ...) @Abc_Print(i32 poison, ptr noundef nonnull @.str.13, double noundef %53)
  ret void
}